; Function Attrs: nounwind uwtable
define hidden zeroext i1 @SDL_SetJoystickVirtualBall_REAL(ptr noundef %0, i32 noundef %1, i16 noundef signext %2, i16 noundef signext %3) local_unnamed_addr #1 {
  %5 = tail call i32 @SDL_AddAtomicInt_REAL(ptr noundef nonnull @SDL_joystick_lock_pending, i32 noundef 1) #13
  %6 = load ptr, ptr @SDL_joystick_lock, align 8
  tail call void @SDL_LockMutex_REAL(ptr noundef %6) #13
  %7 = tail call i32 @SDL_AddAtomicInt_REAL(ptr noundef nonnull @SDL_joystick_lock_pending, i32 noundef -1) #13
  %8 = load i32, ptr @SDL_joysticks_locked, align 4
  %9 = add nsw i32 %8, 1
  store i32 %9, ptr @SDL_joysticks_locked, align 4
  %10 = tail call zeroext i1 @SDL_ObjectValid(ptr noundef %0, i32 noundef 4) #13
  br i1 %10, label %23, label %11

11:                                               ; preds = %4
  %12 = tail call zeroext i1 (ptr, ...) @SDL_SetError_REAL(ptr noundef nonnull @.str.2, ptr noundef nonnull @.str.3) #13
  %13 = load i32, ptr @SDL_joysticks_locked, align 4
  %14 = add nsw i32 %13, -1
  store i32 %14, ptr @SDL_joysticks_locked, align 4
  %.b4.i = load i1, ptr @SDL_joysticks_initialized, align 1
  %15 = icmp ne i32 %14, 0
  %or.cond.i = select i1 %.b4.i, i1 true, i1 %15
  br i1 %or.cond.i, label %.critedge.i, label %16

16:                                               ; preds = %11
  %17 = tail call i32 @SDL_GetAtomicInt_REAL(ptr noundef nonnull @SDL_joystick_lock_pending) #13
  %18 = icmp eq i32 %17, 0
  br i1 %18, label %19, label %.critedge.i

19:                                               ; preds = %16
  %20 = load ptr, ptr @SDL_joystick_lock, align 8
  tail call void @SDL_LockMutex_REAL(ptr noundef %20) #13
  %21 = load ptr, ptr @SDL_joystick_lock, align 8
  tail call void @SDL_UnlockMutex_REAL(ptr noundef %21) #13
  store ptr null, ptr @SDL_joystick_lock, align 8
  tail call void @SDL_UnlockMutex_REAL(ptr noundef %20) #13
  tail call void @SDL_DestroyMutex_REAL(ptr noundef %20) #13
  br label %SDL_UnlockJoysticks_REAL.exit

.critedge.i:                                      ; preds = %16, %11
  %22 = load ptr, ptr @SDL_joystick_lock, align 8
  tail call void @SDL_UnlockMutex_REAL(ptr noundef %22) #13
  br label %SDL_UnlockJoysticks_REAL.exit

23:                                               ; preds = %4
  %24 = getelementptr inbounds nuw i8, ptr %0, i64 65
  %25 = load i8, ptr %24, align 1, !range !26, !noundef !27
  %26 = trunc nuw i8 %25 to i1
  br i1 %26, label %39, label %27

27:                                               ; preds = %23
  %28 = tail call zeroext i1 (ptr, ...) @SDL_SetError_REAL(ptr noundef nonnull @.str.4) #13
  %29 = load i32, ptr @SDL_joysticks_locked, align 4
  %30 = add nsw i32 %29, -1
  store i32 %30, ptr @SDL_joysticks_locked, align 4
  %.b4.i7 = load i1, ptr @SDL_joysticks_initialized, align 1
  %31 = icmp ne i32 %30, 0
  %or.cond.i8 = select i1 %.b4.i7, i1 true, i1 %31
  br i1 %or.cond.i8, label %.critedge.i9, label %32

32:                                               ; preds = %27
  %33 = tail call i32 @SDL_GetAtomicInt_REAL(ptr noundef nonnull @SDL_joystick_lock_pending) #13
  %34 = icmp eq i32 %33, 0
  br i1 %34, label %35, label %.critedge.i9

35:                                               ; preds = %32
  %36 = load ptr, ptr @SDL_joystick_lock, align 8
  tail call void @SDL_LockMutex_REAL(ptr noundef %36) #13
  %37 = load ptr, ptr @SDL_joystick_lock, align 8
  tail call void @SDL_UnlockMutex_REAL(ptr noundef %37) #13
  store ptr null, ptr @SDL_joystick_lock, align 8
  tail call void @SDL_UnlockMutex_REAL(ptr noundef %36) #13
  tail call void @SDL_DestroyMutex_REAL(ptr noundef %36) #13
  br label %SDL_UnlockJoysticks_REAL.exit

.critedge.i9:                                     ; preds = %32, %27
  %38 = load ptr, ptr @SDL_joystick_lock, align 8
  tail call void @SDL_UnlockMutex_REAL(ptr noundef %38) #13
  br label %SDL_UnlockJoysticks_REAL.exit

39:                                               ; preds = %23
  %40 = tail call zeroext i1 @SDL_SetJoystickVirtualBallInner(ptr noundef nonnull %0, i32 noundef %1, i16 noundef signext %2, i16 noundef signext %3) #13
  %41 = load i32, ptr @SDL_joysticks_locked, align 4
  %42 = add nsw i32 %41, -1
  store i32 %42, ptr @SDL_joysticks_locked, align 4
  %.b4.i11 = load i1, ptr @SDL_joysticks_initialized, align 1
  %43 = icmp ne i32 %42, 0
  %or.cond.i12 = select i1 %.b4.i11, i1 true, i1 %43
  br i1 %or.cond.i12, label %.critedge.i13, label %44

44:                                               ; preds = %39
  %45 = tail call i32 @SDL_GetAtomicInt_REAL(ptr noundef nonnull @SDL_joystick_lock_pending) #13
  %46 = icmp eq i32 %45, 0
  br i1 %46, label %47, label %.critedge.i13

47:                                               ; preds = %44
  %48 = load ptr, ptr @SDL_joystick_lock, align 8
  tail call void @SDL_LockMutex_REAL(ptr noundef %48) #13
  %49 = load ptr, ptr @SDL_joystick_lock, align 8
  tail call void @SDL_UnlockMutex_REAL(ptr noundef %49) #13
  store ptr null, ptr @SDL_joystick_lock, align 8
  tail call void @SDL_UnlockMutex_REAL(ptr noundef %48) #13
  tail call void @SDL_DestroyMutex_REAL(ptr noundef %48) #13
  br label %SDL_UnlockJoysticks_REAL.exit

.critedge.i13:                                    ; preds = %44, %39
  %50 = load ptr, ptr @SDL_joystick_lock, align 8
  tail call void @SDL_UnlockMutex_REAL(ptr noundef %50) #13
  br label %SDL_UnlockJoysticks_REAL.exit

SDL_UnlockJoysticks_REAL.exit:                    ; preds = %.critedge.i13, %47, %.critedge.i9, %35, %.critedge.i, %19
  %.0 = phi i1 [ false, %19 ], [ false, %.critedge.i ], [ false, %35 ], [ false, %.critedge.i9 ], [ %40, %47 ], [ %40, %.critedge.i13 ]
  ret i1 %.0
}